; Function Attrs: nounwind uwtable
define dso_local i32 @report_locks_set() local_unnamed_addr #0 {
  %1 = alloca ptr, align 8
  %2 = alloca ptr, align 8
  %3 = alloca ptr, align 8
  %4 = alloca ptr, align 8
  %5 = alloca ptr, align 8
  call void @llvm.lifetime.start.p0(i64 8, ptr nonnull %1) #7
  store ptr @.str.3, ptr %1, align 8
  call void @llvm.lifetime.start.p0(i64 8, ptr nonnull %2) #7
  store ptr @.str.3, ptr %2, align 8
  call void @llvm.lifetime.start.p0(i64 8, ptr nonnull %3) #7
  store ptr @.str.3, ptr %3, align 8
  call void @llvm.lifetime.start.p0(i64 8, ptr nonnull %4) #7
  store ptr @.str.3, ptr %4, align 8
  call void @llvm.lifetime.start.p0(i64 8, ptr nonnull %5) #7
  store ptr @.str.3, ptr %5, align 8
  call fastcc void @_report_lock_set(ptr noundef %1, i32 noundef 0)
  call fastcc void @_report_lock_set(ptr noundef %2, i32 noundef 1)
  call fastcc void @_report_lock_set(ptr noundef %3, i32 noundef 2)
  call fastcc void @_report_lock_set(ptr noundef %4, i32 noundef 3)
  call fastcc void @_report_lock_set(ptr noundef %5, i32 noundef 4)
  %6 = load ptr, ptr %1, align 8
  %7 = tail call i64 @strlen(ptr noundef nonnull dereferenceable(1) %6) #10
  %8 = load ptr, ptr %2, align 8
  %9 = tail call i64 @strlen(ptr noundef nonnull dereferenceable(1) %8) #10
  %10 = add i64 %9, %7
  %11 = load ptr, ptr %3, align 8
  %12 = tail call i64 @strlen(ptr noundef nonnull dereferenceable(1) %11) #10
  %13 = add i64 %10, %12
  %14 = load ptr, ptr %4, align 8
  %15 = tail call i64 @strlen(ptr noundef nonnull dereferenceable(1) %14) #10
  %16 = add i64 %13, %15
  %17 = load ptr, ptr %5, align 8
  %18 = tail call i64 @strlen(ptr noundef nonnull dereferenceable(1) %17) #10
  %19 = add i64 %16, %18
  %20 = trunc i64 %19 to i32
  %21 = icmp sgt i32 %20, 0
  br i1 %21, label %22, label %24

22:                                               ; preds = %0
  %23 = tail call i32 (ptr, ...) @error(ptr noundef nonnull @.str.4, ptr noundef nonnull %6, ptr noundef nonnull %8, ptr noundef nonnull %11, ptr noundef nonnull %14, ptr noundef nonnull %17) #7
  br label %24

24:                                               ; preds = %22, %0
  call void @llvm.lifetime.end.p0(i64 8, ptr nonnull %5) #7
  call void @llvm.lifetime.end.p0(i64 8, ptr nonnull %4) #7
  call void @llvm.lifetime.end.p0(i64 8, ptr nonnull %3) #7
  call void @llvm.lifetime.end.p0(i64 8, ptr nonnull %2) #7
  call void @llvm.lifetime.end.p0(i64 8, ptr nonnull %1) #7
  ret i32 %20
}